; Function Attrs: nounwind uwtable
define internal void @reparent_cb(ptr noundef %0, ptr noundef %1, ptr noundef %2, ptr noundef captures(none) %3) #0 {
  %5 = load ptr, ptr %3, align 8, !tbaa !16
  %.not = icmp eq ptr %5, null
  br i1 %.not, label %19, label %6

6:                                                ; preds = %4
  %.val.i = load i8, ptr %5, align 1, !tbaa !17
  %.not.i = icmp eq i8 %.val.i, 47
  br i1 %.not.i, label %7, label %9

7:                                                ; preds = %6
  %8 = tail call ptr @xstrdup(ptr noundef nonnull %5) #7
  br label %reparent_relative_path.exit

9:                                                ; preds = %6
  %10 = tail call ptr (ptr, ...) @xstrfmt(ptr noundef nonnull @.str.2, ptr noundef %1, ptr noundef nonnull %5) #7
  %11 = tail call ptr @remove_leading_path(ptr noundef %10, ptr noundef %2) #7
  %12 = tail call ptr @xstrdup(ptr noundef %11) #7
  tail call void @free(ptr noundef %10) #7
  br label %reparent_relative_path.exit

reparent_relative_path.exit:                      ; preds = %7, %9
  %.0.i = phi ptr [ %8, %7 ], [ %12, %9 ]
  store ptr %.0.i, ptr %3, align 8, !tbaa !16
  tail call void @free(ptr noundef nonnull %5) #7
  %.not12 = icmp eq ptr %0, null
  br i1 %.not12, label %19, label %13

13:                                               ; preds = %reparent_relative_path.exit
  %14 = load i32, ptr getelementptr inbounds nuw (i8, ptr @trace_setup_key, i64 8), align 8, !tbaa !18
  %.not.i14 = icmp eq i32 %14, 0
  %15 = load i8, ptr getelementptr inbounds nuw (i8, ptr @trace_setup_key, i64 12), align 4
  %16 = and i8 %15, 1
  %.not1315 = icmp ne i8 %16, 0
  %.not13 = select i1 %.not.i14, i1 %.not1315, i1 false
  br i1 %.not13, label %19, label %17

17:                                               ; preds = %13
  %18 = load ptr, ptr %3, align 8, !tbaa !16
  tail call void (ptr, i32, ptr, ptr, ...) @trace_printf_key_fl(ptr noundef nonnull @.str, i32 noundef 45, ptr noundef nonnull @trace_setup_key, ptr noundef nonnull @.str.3, ptr noundef nonnull %0, ptr noundef %18) #7
  br label %19

19:                                               ; preds = %reparent_relative_path.exit, %17, %13, %4
  ret void
}